target datalayout = "e-m:e-p270:32:32-p271:32:32-p272:64:64-i64:64-i128:128-f80:128-n8:16:32:64-S128"
target triple = "x86_64-pc-linux-gnu"

%struct.EXRContext = type { ptr, ptr, ptr, %struct.ExrDSPContext, i32, i32, [4 x i32], ptr, i32, i32, i32, i32, i32, i32, i32, i32, i32, i32, %struct.EXRTileAttribute, i32, i32, i32, i32, %struct.GetByteContext, ptr, i32, ptr, i32, i32, i32, ptr, ptr, i32, ptr, i32, float, [65536 x i16], %struct.Float2HalfTables, %struct.Half2FloatTables }
%struct.ExrDSPContext = type { ptr, ptr }
%struct.EXRTileAttribute = type { i32, i32, i32, i32 }
%struct.GetByteContext = type { ptr, ptr, ptr }
%struct.Float2HalfTables = type { [512 x i16], [512 x i8] }
%struct.Half2FloatTables = type { [3072 x i32], [64 x i32], [64 x i16] }
%struct.EXRThreadData = type { ptr, i32, ptr, i32, ptr, ptr, ptr, i32, ptr, i32, ptr, i32, ptr, i32, [3 x [64 x float]], i32, i32, i32, i32, ptr, ptr, %struct.VLC }
%struct.VLC = type { i32, ptr, i32, i32 }

; Function Attrs: nounwind uwtable
define internal i32 @rle(ptr noundef %0, ptr noundef %1, i32 noundef %2, i32 noundef %3) #1 {
  %5 = alloca i32, align 4
  %6 = alloca ptr, align 8
  %7 = alloca ptr, align 8
  %8 = alloca i32, align 4
  %9 = alloca i32, align 4
  %10 = alloca ptr, align 8
  %11 = alloca ptr, align 8
  %12 = alloca i32, align 4
  %13 = alloca i32, align 4
  %14 = alloca ptr, align 8
  %15 = alloca i32, align 4
  %16 = alloca i32, align 4
  store ptr %0, ptr %6, align 8, !tbaa !92
  store ptr %1, ptr %7, align 8, !tbaa !92
  store i32 %2, ptr %8, align 4, !tbaa !46
  store i32 %3, ptr %9, align 4, !tbaa !46
  call void @llvm.lifetime.start.p0(i64 8, ptr %10) #13
  %17 = load ptr, ptr %6, align 8, !tbaa !92
  store ptr %17, ptr %10, align 8, !tbaa !92
  call void @llvm.lifetime.start.p0(i64 8, ptr %11) #13
  %18 = load ptr, ptr %7, align 8, !tbaa !92
  store ptr %18, ptr %11, align 8, !tbaa !92
  call void @llvm.lifetime.start.p0(i64 4, ptr %12) #13
  %19 = load i32, ptr %8, align 4, !tbaa !46
  store i32 %19, ptr %12, align 4, !tbaa !46
  call void @llvm.lifetime.start.p0(i64 4, ptr %13) #13
  %20 = load i32, ptr %9, align 4, !tbaa !46
  store i32 %20, ptr %13, align 4, !tbaa !46
  call void @llvm.lifetime.start.p0(i64 8, ptr %14) #13
  %21 = load ptr, ptr %10, align 8, !tbaa !92
  %22 = load i32, ptr %13, align 4, !tbaa !46
  %23 = sext i32 %22 to i64
  %24 = getelementptr inbounds i8, ptr %21, i64 %23
  store ptr %24, ptr %14, align 8, !tbaa !92
  call void @llvm.lifetime.start.p0(i64 4, ptr %15) #13
  br label %25

25:                                               ; preds = %86, %4
  %26 = load i32, ptr %12, align 4, !tbaa !46
  %27 = icmp sgt i32 %26, 0
  br i1 %27, label %28, label %87

28:                                               ; preds = %25
  %29 = load ptr, ptr %11, align 8, !tbaa !92
  %30 = getelementptr inbounds nuw i8, ptr %29, i32 1
  store ptr %30, ptr %11, align 8, !tbaa !92
  %31 = load i8, ptr %29, align 1, !tbaa !47
  %32 = sext i8 %31 to i32
  store i32 %32, ptr %15, align 4, !tbaa !46
  %33 = load i32, ptr %15, align 4, !tbaa !46
  %34 = icmp slt i32 %33, 0
  br i1 %34, label %35, label %61

35:                                               ; preds = %28
  %36 = load i32, ptr %15, align 4, !tbaa !46
  %37 = sub nsw i32 0, %36
  store i32 %37, ptr %15, align 4, !tbaa !46
  %38 = load i32, ptr %15, align 4, !tbaa !46
  %39 = load i32, ptr %13, align 4, !tbaa !46
  %40 = sub nsw i32 %39, %38
  store i32 %40, ptr %13, align 4, !tbaa !46
  %41 = icmp slt i32 %40, 0
  br i1 %41, label %48, label %42

42:                                               ; preds = %35
  %43 = load i32, ptr %15, align 4, !tbaa !46
  %44 = add nsw i32 %43, 1
  %45 = load i32, ptr %12, align 4, !tbaa !46
  %46 = sub nsw i32 %45, %44
  store i32 %46, ptr %12, align 4, !tbaa !46
  %47 = icmp slt i32 %46, 0
  br i1 %47, label %48, label %49

48:                                               ; preds = %42, %35
  store i32 -1094995529, ptr %5, align 4
  store i32 1, ptr %16, align 4
  br label %93

49:                                               ; preds = %42
  br label %50

50:                                               ; preds = %54, %49
  %51 = load i32, ptr %15, align 4, !tbaa !46
  %52 = add nsw i32 %51, -1
  store i32 %52, ptr %15, align 4, !tbaa !46
  %53 = icmp ne i32 %51, 0
  br i1 %53, label %54, label %60

54:                                               ; preds = %50
  %55 = load ptr, ptr %11, align 8, !tbaa !92
  %56 = getelementptr inbounds nuw i8, ptr %55, i32 1
  store ptr %56, ptr %11, align 8, !tbaa !92
  %57 = load i8, ptr %55, align 1, !tbaa !47
  %58 = load ptr, ptr %10, align 8, !tbaa !92
  %59 = getelementptr inbounds nuw i8, ptr %58, i32 1
  store ptr %59, ptr %10, align 8, !tbaa !92
  store i8 %57, ptr %58, align 1, !tbaa !47
  br label %50, !llvm.loop !254

60:                                               ; preds = %50
  br label %86

61:                                               ; preds = %28
  %62 = load i32, ptr %15, align 4, !tbaa !46
  %63 = add nsw i32 %62, 1
  store i32 %63, ptr %15, align 4, !tbaa !46
  %64 = load i32, ptr %15, align 4, !tbaa !46
  %65 = load i32, ptr %13, align 4, !tbaa !46
  %66 = sub nsw i32 %65, %64
  store i32 %66, ptr %13, align 4, !tbaa !46
  %67 = icmp slt i32 %66, 0
  br i1 %67, label %72, label %68

68:                                               ; preds = %61
  %69 = load i32, ptr %12, align 4, !tbaa !46
  %70 = sub nsw i32 %69, 2
  store i32 %70, ptr %12, align 4, !tbaa !46
  %71 = icmp slt i32 %70, 0
  br i1 %71, label %72, label %73

72:                                               ; preds = %68, %61
  store i32 -1094995529, ptr %5, align 4
  store i32 1, ptr %16, align 4
  br label %93

73:                                               ; preds = %68
  br label %74

74:                                               ; preds = %78, %73
  %75 = load i32, ptr %15, align 4, !tbaa !46
  %76 = add nsw i32 %75, -1
  store i32 %76, ptr %15, align 4, !tbaa !46
  %77 = icmp ne i32 %75, 0
  br i1 %77, label %78, label %83

78:                                               ; preds = %74
  %79 = load ptr, ptr %11, align 8, !tbaa !92
  %80 = load i8, ptr %79, align 1, !tbaa !47
  %81 = load ptr, ptr %10, align 8, !tbaa !92
  %82 = getelementptr inbounds nuw i8, ptr %81, i32 1
  store ptr %82, ptr %10, align 8, !tbaa !92
  store i8 %80, ptr %81, align 1, !tbaa !47
  br label %74, !llvm.loop !255

83:                                               ; preds = %74
  %84 = load ptr, ptr %11, align 8, !tbaa !92
  %85 = getelementptr inbounds nuw i8, ptr %84, i32 1
  store ptr %85, ptr %11, align 8, !tbaa !92
  br label %86

86:                                               ; preds = %83, %60
  br label %25, !llvm.loop !256

87:                                               ; preds = %25
  %88 = load ptr, ptr %14, align 8, !tbaa !92
  %89 = load ptr, ptr %10, align 8, !tbaa !92
  %90 = icmp ne ptr %88, %89
  br i1 %90, label %91, label %92

91:                                               ; preds = %87
  store i32 -1094995529, ptr %5, align 4
  store i32 1, ptr %16, align 4
  br label %93

92:                                               ; preds = %87
  store i32 0, ptr %5, align 4
  store i32 1, ptr %16, align 4
  br label %93

93:                                               ; preds = %92, %91, %72, %48
  call void @llvm.lifetime.end.p0(i64 4, ptr %15) #13
  call void @llvm.lifetime.end.p0(i64 8, ptr %14) #13
  call void @llvm.lifetime.end.p0(i64 4, ptr %13) #13
  call void @llvm.lifetime.end.p0(i64 4, ptr %12) #13
  call void @llvm.lifetime.end.p0(i64 8, ptr %11) #13
  call void @llvm.lifetime.end.p0(i64 8, ptr %10) #13
  %94 = load i32, ptr %5, align 4
  ret i32 %94
}

; Function Attrs: nounwind uwtable
define internal i32 @rle_uncompress(ptr noundef %0, ptr noundef %1, i32 noundef %2, i32 noundef %3, ptr noundef %4) #1 {
  %6 = alloca ptr, align 8
  %7 = alloca ptr, align 8
  %8 = alloca i32, align 4
  %9 = alloca i32, align 4
  %10 = alloca ptr, align 8
  store ptr %0, ptr %6, align 8, !tbaa !29
  store ptr %1, ptr %7, align 8, !tbaa !92
  store i32 %2, ptr %8, align 4, !tbaa !46
  store i32 %3, ptr %9, align 4, !tbaa !46
  store ptr %4, ptr %10, align 8, !tbaa !105
  %11 = load ptr, ptr %10, align 8, !tbaa !105
  %12 = getelementptr inbounds nuw %struct.EXRThreadData, ptr %11, i32 0, i32 2
  %13 = load ptr, ptr %12, align 8, !tbaa !157
  %14 = load ptr, ptr %7, align 8, !tbaa !92
  %15 = load i32, ptr %8, align 4, !tbaa !46
  %16 = load i32, ptr %9, align 4, !tbaa !46
  %17 = call i32 @rle(ptr noundef %13, ptr noundef %14, i32 noundef %15, i32 noundef %16)
  %18 = load ptr, ptr %6, align 8, !tbaa !29
  %19 = getelementptr inbounds nuw %struct.EXRContext, ptr %18, i32 0, i32 3
  %20 = getelementptr inbounds nuw %struct.ExrDSPContext, ptr %19, i32 0, i32 1
  %21 = load ptr, ptr %20, align 8, !tbaa !180
  %22 = load ptr, ptr %10, align 8, !tbaa !105
  %23 = getelementptr inbounds nuw %struct.EXRThreadData, ptr %22, i32 0, i32 2
  %24 = load ptr, ptr %23, align 8, !tbaa !157
  %25 = load i32, ptr %9, align 4, !tbaa !46
  %26 = sext i32 %25 to i64
  call void %21(ptr noundef %24, i64 noundef %26)
  %27 = load ptr, ptr %6, align 8, !tbaa !29
  %28 = getelementptr inbounds nuw %struct.EXRContext, ptr %27, i32 0, i32 3
  %29 = getelementptr inbounds nuw %struct.ExrDSPContext, ptr %28, i32 0, i32 0
  %30 = load ptr, ptr %29, align 8, !tbaa !181
  %31 = load ptr, ptr %10, align 8, !tbaa !105
  %32 = getelementptr inbounds nuw %struct.EXRThreadData, ptr %31, i32 0, i32 0
  %33 = load ptr, ptr %32, align 8, !tbaa !158
  %34 = load ptr, ptr %10, align 8, !tbaa !105
  %35 = getelementptr inbounds nuw %struct.EXRThreadData, ptr %34, i32 0, i32 2
  %36 = load ptr, ptr %35, align 8, !tbaa !157
  %37 = load i32, ptr %9, align 4, !tbaa !46
  %38 = sext i32 %37 to i64
  call void %30(ptr noundef %33, ptr noundef %36, i64 noundef %38)
  ret i32 0
}