; Function Attrs: nounwind uwtable
define internal fastcc void @rle_uncompress(ptr noundef readonly captures(none) %0, ptr noundef readonly captures(none) %1, i32 noundef range(i32 1, 0) %2, i32 noundef %3, ptr noundef readonly captures(none) %4) unnamed_addr #1 {
  %6 = getelementptr inbounds nuw i8, ptr %4, i64 16
  %7 = load ptr, ptr %6, align 8, !tbaa !135
  %8 = icmp sgt i32 %2, 0
  br i1 %8, label %.lr.ph.i, label %rle.exit

.lr.ph.i:                                         ; preds = %5, %.loopexit.i
  %.02854.i = phi i32 [ %.129.i, %.loopexit.i ], [ %3, %5 ]
  %.03053.i = phi i32 [ %.131.i, %.loopexit.i ], [ %2, %5 ]
  %.03252.i = phi ptr [ %.2.i, %.loopexit.i ], [ %1, %5 ]
  %.03451.i = phi ptr [ %.236.i, %.loopexit.i ], [ %7, %5 ]
  %9 = getelementptr inbounds nuw i8, ptr %.03252.i, i64 1
  %10 = load i8, ptr %.03252.i, align 1, !tbaa !44
  %11 = sext i8 %10 to i32
  %12 = icmp slt i8 %10, 0
  br i1 %12, label %13, label %24

13:                                               ; preds = %.lr.ph.i
  %14 = add nsw i32 %.02854.i, %11
  %15 = icmp slt i32 %14, 0
  br i1 %15, label %rle.exit.loopexit, label %16

16:                                               ; preds = %13
  %.neg.i = add nsw i32 %.03053.i, -1
  %17 = add i32 %.neg.i, %11
  %18 = icmp slt i32 %17, 0
  br i1 %18, label %rle.exit.loopexit, label %.preheader.preheader.i

.preheader.preheader.i:                           ; preds = %16
  %19 = sub nsw i32 0, %11
  br label %.preheader.i

.preheader.i:                                     ; preds = %.preheader.i, %.preheader.preheader.i
  %.050.i = phi i32 [ %20, %.preheader.i ], [ %19, %.preheader.preheader.i ]
  %.13349.i = phi ptr [ %21, %.preheader.i ], [ %9, %.preheader.preheader.i ]
  %.13548.i = phi ptr [ %23, %.preheader.i ], [ %.03451.i, %.preheader.preheader.i ]
  %20 = add nsw i32 %.050.i, -1
  %21 = getelementptr inbounds nuw i8, ptr %.13349.i, i64 1
  %22 = load i8, ptr %.13349.i, align 1, !tbaa !44
  %23 = getelementptr inbounds nuw i8, ptr %.13548.i, i64 1
  store i8 %22, ptr %.13548.i, align 1, !tbaa !44
  %.not42.i = icmp eq i32 %20, 0
  br i1 %.not42.i, label %.loopexit.i, label %.preheader.i, !llvm.loop !174

24:                                               ; preds = %.lr.ph.i
  %25 = add nuw nsw i32 %11, 1
  %26 = sub nsw i32 %.02854.i, %25
  %27 = icmp slt i32 %26, 0
  %28 = icmp eq i32 %.03053.i, 1
  %or.cond = or i1 %27, %28
  br i1 %or.cond, label %rle.exit.loopexit, label %.preheader43.preheader.i

.preheader43.preheader.i:                         ; preds = %24
  %29 = add nsw i32 %.03053.i, -2
  %.pre.i = load i8, ptr %9, align 1, !tbaa !44
  %30 = zext nneg i32 %25 to i64
  tail call void @llvm.memset.p0.i64(ptr noundef nonnull align 1 dereferenceable(1) %.03451.i, i8 %.pre.i, i64 %30, i1 false), !tbaa !44
  %scevgep = getelementptr i8, ptr %.03451.i, i64 1
  %31 = zext nneg i32 %11 to i64
  %scevgep14 = getelementptr i8, ptr %scevgep, i64 %31
  %32 = getelementptr inbounds nuw i8, ptr %.03252.i, i64 2
  br label %.loopexit.i

.loopexit.i:                                      ; preds = %.preheader.i, %.preheader43.preheader.i
  %.236.i = phi ptr [ %scevgep14, %.preheader43.preheader.i ], [ %23, %.preheader.i ]
  %.2.i = phi ptr [ %32, %.preheader43.preheader.i ], [ %21, %.preheader.i ]
  %.131.i = phi i32 [ %29, %.preheader43.preheader.i ], [ %17, %.preheader.i ]
  %.129.i = phi i32 [ %26, %.preheader43.preheader.i ], [ %14, %.preheader.i ]
  %33 = icmp sgt i32 %.131.i, 0
  br i1 %33, label %.lr.ph.i, label %rle.exit.loopexit, !llvm.loop !175

rle.exit.loopexit:                                ; preds = %24, %16, %13, %.loopexit.i
  %.pre = load ptr, ptr %6, align 8, !tbaa !135
  br label %rle.exit

rle.exit:                                         ; preds = %rle.exit.loopexit, %5
  %34 = phi ptr [ %.pre, %rle.exit.loopexit ], [ %7, %5 ]
  %35 = sext i32 %3 to i64
  %36 = getelementptr inbounds nuw i8, ptr %0, i64 24
  %37 = getelementptr inbounds nuw i8, ptr %0, i64 32
  %38 = load ptr, ptr %37, align 8, !tbaa !153
  tail call void %38(ptr noundef %34, i64 noundef %35) #14
  %39 = load ptr, ptr %36, align 8, !tbaa !154
  %40 = load ptr, ptr %4, align 8, !tbaa !136
  %41 = load ptr, ptr %6, align 8, !tbaa !135
  tail call void %39(ptr noundef %40, ptr noundef %41, i64 noundef %35) #14
  ret void
}